target datalayout = "e-m:e-p270:32:32-p271:32:32-p272:64:64-i64:64-i128:128-f80:128-n8:16:32:64-S128"
target triple = "x86_64-pc-linux-gnu"

%struct.jpeg_decompress_struct = type { ptr, ptr, ptr, ptr, i32, i32, ptr, i32, i32, i32, i32, i32, i32, i32, double, i32, i32, i32, i32, i32, i32, i32, i32, i32, i32, i32, i32, i32, i32, i32, i32, i32, i32, ptr, i32, i32, i32, i32, i32, ptr, [4 x ptr], [4 x ptr], [4 x ptr], i32, ptr, i32, i32, [16 x i8], [16 x i8], [16 x i8], i32, i32, i8, i8, i8, i16, i16, i32, i8, i32, ptr, i32, i32, i32, i32, ptr, i32, [4 x ptr], i32, i32, i32, [10 x i32], i32, i32, i32, i32, i32, ptr, ptr, ptr, ptr, ptr, ptr, ptr, ptr, ptr, ptr, ptr }
%struct.jpeg_error_mgr = type { ptr, ptr, ptr, ptr, ptr, i32, %union.anon, i32, i64, ptr, i32, ptr, i32, i32 }
%union.anon = type { [8 x i32], [48 x i8] }
%struct.jpeg_memory_mgr = type { ptr, ptr, ptr, ptr, ptr, ptr, ptr, ptr, ptr, ptr, ptr, i64, i64 }
%struct.gif_dest_struct = type { %struct.djpeg_dest_struct, ptr, i32, i16, i32, i32, i32, i16, i32, i16, i16, i16, i16, ptr, ptr, i32, [256 x i8] }
%struct.djpeg_dest_struct = type { ptr, ptr, ptr, ptr, ptr, ptr, ptr, ptr, i32 }

; Function Attrs: nounwind uwtable
define dso_local ptr @jinit_write_gif(ptr noundef %0, i32 noundef %1) #0 {
  %3 = alloca ptr, align 8
  %4 = alloca i32, align 4
  %5 = alloca ptr, align 8
  store ptr %0, ptr %3, align 8, !tbaa !4
  store i32 %1, ptr %4, align 4, !tbaa !9
  call void @llvm.lifetime.start.p0(i64 8, ptr %5) #5
  %6 = load ptr, ptr %3, align 8, !tbaa !4
  %7 = getelementptr inbounds nuw %struct.jpeg_decompress_struct, ptr %6, i32 0, i32 43
  %8 = load i32, ptr %7, align 8, !tbaa !11
  %9 = icmp ne i32 %8, 8
  br i1 %9, label %10, label %29

10:                                               ; preds = %2
  %11 = load ptr, ptr %3, align 8, !tbaa !4
  %12 = getelementptr inbounds nuw %struct.jpeg_decompress_struct, ptr %11, i32 0, i32 0
  %13 = load ptr, ptr %12, align 8, !tbaa !34
  %14 = getelementptr inbounds nuw %struct.jpeg_error_mgr, ptr %13, i32 0, i32 5
  store i32 15, ptr %14, align 8, !tbaa !35
  %15 = load ptr, ptr %3, align 8, !tbaa !4
  %16 = getelementptr inbounds nuw %struct.jpeg_decompress_struct, ptr %15, i32 0, i32 43
  %17 = load i32, ptr %16, align 8, !tbaa !11
  %18 = load ptr, ptr %3, align 8, !tbaa !4
  %19 = getelementptr inbounds nuw %struct.jpeg_decompress_struct, ptr %18, i32 0, i32 0
  %20 = load ptr, ptr %19, align 8, !tbaa !34
  %21 = getelementptr inbounds nuw %struct.jpeg_error_mgr, ptr %20, i32 0, i32 6
  %22 = getelementptr inbounds [8 x i32], ptr %21, i64 0, i64 0
  store i32 %17, ptr %22, align 4, !tbaa !38
  %23 = load ptr, ptr %3, align 8, !tbaa !4
  %24 = getelementptr inbounds nuw %struct.jpeg_decompress_struct, ptr %23, i32 0, i32 0
  %25 = load ptr, ptr %24, align 8, !tbaa !34
  %26 = getelementptr inbounds nuw %struct.jpeg_error_mgr, ptr %25, i32 0, i32 0
  %27 = load ptr, ptr %26, align 8, !tbaa !39
  %28 = load ptr, ptr %3, align 8, !tbaa !4
  call void %27(ptr noundef %28)
  br label %29

29:                                               ; preds = %10, %2
  %30 = load ptr, ptr %3, align 8, !tbaa !4
  %31 = getelementptr inbounds nuw %struct.jpeg_decompress_struct, ptr %30, i32 0, i32 1
  %32 = load ptr, ptr %31, align 8, !tbaa !40
  %33 = getelementptr inbounds nuw %struct.jpeg_memory_mgr, ptr %32, i32 0, i32 0
  %34 = load ptr, ptr %33, align 8, !tbaa !41
  %35 = load ptr, ptr %3, align 8, !tbaa !4
  %36 = call ptr %34(ptr noundef %35, i32 noundef 1, i64 noundef 400)
  store ptr %36, ptr %5, align 8, !tbaa !43
  %37 = load ptr, ptr %3, align 8, !tbaa !4
  %38 = load ptr, ptr %5, align 8, !tbaa !43
  %39 = getelementptr inbounds nuw %struct.gif_dest_struct, ptr %38, i32 0, i32 1
  store ptr %37, ptr %39, align 8, !tbaa !44
  %40 = load ptr, ptr %5, align 8, !tbaa !43
  %41 = getelementptr inbounds nuw %struct.gif_dest_struct, ptr %40, i32 0, i32 0
  %42 = getelementptr inbounds nuw %struct.djpeg_dest_struct, ptr %41, i32 0, i32 0
  store ptr @start_output_gif, ptr %42, align 8, !tbaa !50
  %43 = load ptr, ptr %5, align 8, !tbaa !43
  %44 = getelementptr inbounds nuw %struct.gif_dest_struct, ptr %43, i32 0, i32 0
  %45 = getelementptr inbounds nuw %struct.djpeg_dest_struct, ptr %44, i32 0, i32 2
  store ptr @finish_output_gif, ptr %45, align 8, !tbaa !51
  %46 = load ptr, ptr %5, align 8, !tbaa !43
  %47 = getelementptr inbounds nuw %struct.gif_dest_struct, ptr %46, i32 0, i32 0
  %48 = getelementptr inbounds nuw %struct.djpeg_dest_struct, ptr %47, i32 0, i32 3
  store ptr @calc_buffer_dimensions_gif, ptr %48, align 8, !tbaa !52
  %49 = load ptr, ptr %3, align 8, !tbaa !4
  %50 = getelementptr inbounds nuw %struct.jpeg_decompress_struct, ptr %49, i32 0, i32 11
  %51 = load i32, ptr %50, align 8, !tbaa !53
  %52 = icmp ne i32 %51, 1
  br i1 %52, label %53, label %69

53:                                               ; preds = %29
  %54 = load ptr, ptr %3, align 8, !tbaa !4
  %55 = getelementptr inbounds nuw %struct.jpeg_decompress_struct, ptr %54, i32 0, i32 11
  %56 = load i32, ptr %55, align 8, !tbaa !53
  %57 = icmp ne i32 %56, 2
  br i1 %57, label %58, label %69

58:                                               ; preds = %53
  %59 = load ptr, ptr %3, align 8, !tbaa !4
  %60 = getelementptr inbounds nuw %struct.jpeg_decompress_struct, ptr %59, i32 0, i32 0
  %61 = load ptr, ptr %60, align 8, !tbaa !34
  %62 = getelementptr inbounds nuw %struct.jpeg_error_mgr, ptr %61, i32 0, i32 5
  store i32 1016, ptr %62, align 8, !tbaa !35
  %63 = load ptr, ptr %3, align 8, !tbaa !4
  %64 = getelementptr inbounds nuw %struct.jpeg_decompress_struct, ptr %63, i32 0, i32 0
  %65 = load ptr, ptr %64, align 8, !tbaa !34
  %66 = getelementptr inbounds nuw %struct.jpeg_error_mgr, ptr %65, i32 0, i32 0
  %67 = load ptr, ptr %66, align 8, !tbaa !39
  %68 = load ptr, ptr %3, align 8, !tbaa !4
  call void %67(ptr noundef %68)
  br label %69

69:                                               ; preds = %58, %53, %29
  %70 = load ptr, ptr %3, align 8, !tbaa !4
  %71 = getelementptr inbounds nuw %struct.jpeg_decompress_struct, ptr %70, i32 0, i32 11
  %72 = load i32, ptr %71, align 8, !tbaa !53
  %73 = icmp ne i32 %72, 1
  br i1 %73, label %79, label %74

74:                                               ; preds = %69
  %75 = load ptr, ptr %3, align 8, !tbaa !4
  %76 = getelementptr inbounds nuw %struct.jpeg_decompress_struct, ptr %75, i32 0, i32 43
  %77 = load i32, ptr %76, align 8, !tbaa !11
  %78 = icmp sgt i32 %77, 8
  br i1 %78, label %79, label %90

79:                                               ; preds = %74, %69
  %80 = load ptr, ptr %3, align 8, !tbaa !4
  %81 = getelementptr inbounds nuw %struct.jpeg_decompress_struct, ptr %80, i32 0, i32 20
  store i32 1, ptr %81, align 4, !tbaa !54
  %82 = load ptr, ptr %3, align 8, !tbaa !4
  %83 = getelementptr inbounds nuw %struct.jpeg_decompress_struct, ptr %82, i32 0, i32 23
  %84 = load i32, ptr %83, align 8, !tbaa !55
  %85 = icmp sgt i32 %84, 256
  br i1 %85, label %86, label %89

86:                                               ; preds = %79
  %87 = load ptr, ptr %3, align 8, !tbaa !4
  %88 = getelementptr inbounds nuw %struct.jpeg_decompress_struct, ptr %87, i32 0, i32 23
  store i32 256, ptr %88, align 8, !tbaa !55
  br label %89

89:                                               ; preds = %86, %79
  br label %90

90:                                               ; preds = %89, %74
  %91 = load ptr, ptr %3, align 8, !tbaa !4
  call void @jpeg_calc_output_dimensions(ptr noundef %91)
  %92 = load ptr, ptr %3, align 8, !tbaa !4
  %93 = getelementptr inbounds nuw %struct.jpeg_decompress_struct, ptr %92, i32 0, i32 30
  %94 = load i32, ptr %93, align 4, !tbaa !56
  %95 = icmp ne i32 %94, 1
  br i1 %95, label %96, label %107

96:                                               ; preds = %90
  %97 = load ptr, ptr %3, align 8, !tbaa !4
  %98 = getelementptr inbounds nuw %struct.jpeg_decompress_struct, ptr %97, i32 0, i32 0
  %99 = load ptr, ptr %98, align 8, !tbaa !34
  %100 = getelementptr inbounds nuw %struct.jpeg_error_mgr, ptr %99, i32 0, i32 5
  store i32 1014, ptr %100, align 8, !tbaa !35
  %101 = load ptr, ptr %3, align 8, !tbaa !4
  %102 = getelementptr inbounds nuw %struct.jpeg_decompress_struct, ptr %101, i32 0, i32 0
  %103 = load ptr, ptr %102, align 8, !tbaa !34
  %104 = getelementptr inbounds nuw %struct.jpeg_error_mgr, ptr %103, i32 0, i32 0
  %105 = load ptr, ptr %104, align 8, !tbaa !39
  %106 = load ptr, ptr %3, align 8, !tbaa !4
  call void %105(ptr noundef %106)
  br label %107

107:                                              ; preds = %96, %90
  %108 = load ptr, ptr %3, align 8, !tbaa !4
  %109 = getelementptr inbounds nuw %struct.jpeg_decompress_struct, ptr %108, i32 0, i32 1
  %110 = load ptr, ptr %109, align 8, !tbaa !40
  %111 = getelementptr inbounds nuw %struct.jpeg_memory_mgr, ptr %110, i32 0, i32 2
  %112 = load ptr, ptr %111, align 8, !tbaa !57
  %113 = load ptr, ptr %3, align 8, !tbaa !4
  %114 = load ptr, ptr %3, align 8, !tbaa !4
  %115 = getelementptr inbounds nuw %struct.jpeg_decompress_struct, ptr %114, i32 0, i32 27
  %116 = load i32, ptr %115, align 8, !tbaa !58
  %117 = call ptr %112(ptr noundef %113, i32 noundef 1, i32 noundef %116, i32 noundef 1)
  %118 = load ptr, ptr %5, align 8, !tbaa !43
  %119 = getelementptr inbounds nuw %struct.gif_dest_struct, ptr %118, i32 0, i32 0
  %120 = getelementptr inbounds nuw %struct.djpeg_dest_struct, ptr %119, i32 0, i32 5
  store ptr %117, ptr %120, align 8, !tbaa !59
  %121 = load ptr, ptr %5, align 8, !tbaa !43
  %122 = getelementptr inbounds nuw %struct.gif_dest_struct, ptr %121, i32 0, i32 0
  %123 = getelementptr inbounds nuw %struct.djpeg_dest_struct, ptr %122, i32 0, i32 8
  store i32 1, ptr %123, align 8, !tbaa !60
  %124 = load i32, ptr %4, align 4, !tbaa !9
  %125 = icmp ne i32 %124, 0
  br i1 %125, label %126, label %148

126:                                              ; preds = %107
  %127 = load ptr, ptr %5, align 8, !tbaa !43
  %128 = getelementptr inbounds nuw %struct.gif_dest_struct, ptr %127, i32 0, i32 0
  %129 = getelementptr inbounds nuw %struct.djpeg_dest_struct, ptr %128, i32 0, i32 1
  store ptr @put_LZW_pixel_rows, ptr %129, align 8, !tbaa !61
  %130 = load ptr, ptr %3, align 8, !tbaa !4
  %131 = getelementptr inbounds nuw %struct.jpeg_decompress_struct, ptr %130, i32 0, i32 1
  %132 = load ptr, ptr %131, align 8, !tbaa !40
  %133 = getelementptr inbounds nuw %struct.jpeg_memory_mgr, ptr %132, i32 0, i32 0
  %134 = load ptr, ptr %133, align 8, !tbaa !41
  %135 = load ptr, ptr %3, align 8, !tbaa !4
  %136 = call ptr %134(ptr noundef %135, i32 noundef 1, i64 noundef 10006)
  %137 = load ptr, ptr %5, align 8, !tbaa !43
  %138 = getelementptr inbounds nuw %struct.gif_dest_struct, ptr %137, i32 0, i32 13
  store ptr %136, ptr %138, align 8, !tbaa !62
  %139 = load ptr, ptr %3, align 8, !tbaa !4
  %140 = getelementptr inbounds nuw %struct.jpeg_decompress_struct, ptr %139, i32 0, i32 1
  %141 = load ptr, ptr %140, align 8, !tbaa !40
  %142 = getelementptr inbounds nuw %struct.jpeg_memory_mgr, ptr %141, i32 0, i32 1
  %143 = load ptr, ptr %142, align 8, !tbaa !63
  %144 = load ptr, ptr %3, align 8, !tbaa !4
  %145 = call ptr %143(ptr noundef %144, i32 noundef 1, i64 noundef 20012)
  %146 = load ptr, ptr %5, align 8, !tbaa !43
  %147 = getelementptr inbounds nuw %struct.gif_dest_struct, ptr %146, i32 0, i32 14
  store ptr %145, ptr %147, align 8, !tbaa !64
  br label %156

148:                                              ; preds = %107
  %149 = load ptr, ptr %5, align 8, !tbaa !43
  %150 = getelementptr inbounds nuw %struct.gif_dest_struct, ptr %149, i32 0, i32 0
  %151 = getelementptr inbounds nuw %struct.djpeg_dest_struct, ptr %150, i32 0, i32 1
  store ptr @put_raw_pixel_rows, ptr %151, align 8, !tbaa !61
  %152 = load ptr, ptr %5, align 8, !tbaa !43
  %153 = getelementptr inbounds nuw %struct.gif_dest_struct, ptr %152, i32 0, i32 13
  store ptr null, ptr %153, align 8, !tbaa !62
  %154 = load ptr, ptr %5, align 8, !tbaa !43
  %155 = getelementptr inbounds nuw %struct.gif_dest_struct, ptr %154, i32 0, i32 14
  store ptr null, ptr %155, align 8, !tbaa !64
  br label %156

156:                                              ; preds = %148, %126
  %157 = load ptr, ptr %5, align 8, !tbaa !43
  call void @llvm.lifetime.end.p0(i64 8, ptr %5) #5
  ret ptr %157
}