; Function Attrs: nounwind uwtable
define dso_local noundef ptr @jinit_write_gif(ptr noundef %0, i32 noundef %1) local_unnamed_addr #0 {
  %3 = getelementptr inbounds nuw i8, ptr %0, i64 296
  %4 = load i32, ptr %3, align 8, !tbaa !4
  %.not = icmp eq i32 %4, 8
  br i1 %.not, label %11, label %5

5:                                                ; preds = %2
  %6 = load ptr, ptr %0, align 8, !tbaa !31
  %7 = getelementptr inbounds nuw i8, ptr %6, i64 40
  store i32 15, ptr %7, align 8, !tbaa !32
  %8 = getelementptr inbounds nuw i8, ptr %6, i64 44
  store i32 %4, ptr %8, align 4, !tbaa !35
  %9 = load ptr, ptr %0, align 8, !tbaa !31
  %10 = load ptr, ptr %9, align 8, !tbaa !36
  tail call void %10(ptr noundef nonnull %0) #7
  br label %11

11:                                               ; preds = %5, %2
  %12 = getelementptr inbounds nuw i8, ptr %0, i64 8
  %13 = load ptr, ptr %12, align 8, !tbaa !37
  %14 = load ptr, ptr %13, align 8, !tbaa !38
  %15 = tail call ptr %14(ptr noundef nonnull %0, i32 noundef 1, i64 noundef 400) #7
  %16 = getelementptr inbounds nuw i8, ptr %15, i64 72
  store ptr %0, ptr %16, align 8, !tbaa !40
  store ptr @start_output_gif, ptr %15, align 8, !tbaa !47
  %17 = getelementptr inbounds nuw i8, ptr %15, i64 16
  store ptr @finish_output_gif, ptr %17, align 8, !tbaa !48
  %18 = getelementptr inbounds nuw i8, ptr %15, i64 24
  store ptr @calc_buffer_dimensions_gif, ptr %18, align 8, !tbaa !49
  %19 = getelementptr inbounds nuw i8, ptr %0, i64 64
  %20 = load i32, ptr %19, align 8, !tbaa !50
  %.off = add i32 %20, -1
  %switch = icmp ult i32 %.off, 2
  br i1 %switch, label %25, label %21

21:                                               ; preds = %11
  %22 = load ptr, ptr %0, align 8, !tbaa !31
  %23 = getelementptr inbounds nuw i8, ptr %22, i64 40
  store i32 1016, ptr %23, align 8, !tbaa !32
  %24 = load ptr, ptr %22, align 8, !tbaa !36
  tail call void %24(ptr noundef nonnull %0) #7
  %.pr = load i32, ptr %19, align 8, !tbaa !50
  br label %25

25:                                               ; preds = %11, %21
  %26 = phi i32 [ %20, %11 ], [ %.pr, %21 ]
  %.not46 = icmp eq i32 %26, 1
  br i1 %.not46, label %27, label %30

27:                                               ; preds = %25
  %28 = load i32, ptr %3, align 8, !tbaa !4
  %29 = icmp sgt i32 %28, 8
  br i1 %29, label %30, label %36

30:                                               ; preds = %27, %25
  %31 = getelementptr inbounds nuw i8, ptr %0, i64 108
  store i32 1, ptr %31, align 4, !tbaa !51
  %32 = getelementptr inbounds nuw i8, ptr %0, i64 120
  %33 = load i32, ptr %32, align 8, !tbaa !52
  %34 = icmp sgt i32 %33, 256
  br i1 %34, label %35, label %36

35:                                               ; preds = %30
  store i32 256, ptr %32, align 8, !tbaa !52
  br label %36

36:                                               ; preds = %30, %35, %27
  tail call void @jpeg_calc_output_dimensions(ptr noundef nonnull %0) #7
  %37 = getelementptr inbounds nuw i8, ptr %0, i64 148
  %38 = load i32, ptr %37, align 4, !tbaa !53
  %.not47 = icmp eq i32 %38, 1
  br i1 %.not47, label %43, label %39

39:                                               ; preds = %36
  %40 = load ptr, ptr %0, align 8, !tbaa !31
  %41 = getelementptr inbounds nuw i8, ptr %40, i64 40
  store i32 1014, ptr %41, align 8, !tbaa !32
  %42 = load ptr, ptr %40, align 8, !tbaa !36
  tail call void %42(ptr noundef nonnull %0) #7
  br label %43

43:                                               ; preds = %39, %36
  %44 = load ptr, ptr %12, align 8, !tbaa !37
  %45 = getelementptr inbounds nuw i8, ptr %44, i64 16
  %46 = load ptr, ptr %45, align 8, !tbaa !54
  %47 = getelementptr inbounds nuw i8, ptr %0, i64 136
  %48 = load i32, ptr %47, align 8, !tbaa !55
  %49 = tail call ptr %46(ptr noundef nonnull %0, i32 noundef 1, i32 noundef %48, i32 noundef 1) #7
  %50 = getelementptr inbounds nuw i8, ptr %15, i64 40
  store ptr %49, ptr %50, align 8, !tbaa !56
  %51 = getelementptr inbounds nuw i8, ptr %15, i64 64
  store i32 1, ptr %51, align 8, !tbaa !57
  %.not48 = icmp eq i32 %1, 0
  %52 = getelementptr inbounds nuw i8, ptr %15, i64 8
  br i1 %.not48, label %62, label %53

53:                                               ; preds = %43
  store ptr @put_LZW_pixel_rows, ptr %52, align 8, !tbaa !58
  %54 = load ptr, ptr %12, align 8, !tbaa !37
  %55 = load ptr, ptr %54, align 8, !tbaa !38
  %56 = tail call ptr %55(ptr noundef nonnull %0, i32 noundef 1, i64 noundef 10006) #7
  %57 = getelementptr inbounds nuw i8, ptr %15, i64 120
  store ptr %56, ptr %57, align 8, !tbaa !59
  %58 = load ptr, ptr %12, align 8, !tbaa !37
  %59 = getelementptr inbounds nuw i8, ptr %58, i64 8
  %60 = load ptr, ptr %59, align 8, !tbaa !60
  %61 = tail call ptr %60(ptr noundef nonnull %0, i32 noundef 1, i64 noundef 20012) #7
  br label %64

62:                                               ; preds = %43
  store ptr @put_raw_pixel_rows, ptr %52, align 8, !tbaa !58
  %63 = getelementptr inbounds nuw i8, ptr %15, i64 120
  store ptr null, ptr %63, align 8, !tbaa !59
  br label %64

64:                                               ; preds = %62, %53
  %.sink = phi ptr [ null, %62 ], [ %61, %53 ]
  %65 = getelementptr inbounds nuw i8, ptr %15, i64 128
  store ptr %.sink, ptr %65, align 8, !tbaa !61
  ret ptr %15
}